target datalayout = "e-m:e-p270:32:32-p271:32:32-p272:64:64-i64:64-i128:128-f80:128-n8:16:32:64-S128"
target triple = "x86_64-pc-linux-gnu"

%struct.Vector3 = type { float, float, float }

; Function Attrs: nounwind uwtable
define { <2 x float>, float } @Vector3AddValue(<2 x float> %0, float %1, float noundef %2) #9 {
  %4 = alloca %struct.Vector3, align 4
  %5 = alloca %struct.Vector3, align 4
  %6 = alloca { <2 x float>, float }, align 4
  %7 = alloca float, align 4
  %8 = alloca { <2 x float>, float }, align 8
  %9 = getelementptr inbounds nuw { <2 x float>, float }, ptr %6, i32 0, i32 0
  store <2 x float> %0, ptr %9, align 4
  %10 = getelementptr inbounds nuw { <2 x float>, float }, ptr %6, i32 0, i32 1
  store float %1, ptr %10, align 4
  call void @llvm.memcpy.p0.p0.i64(ptr align 4 %5, ptr align 4 %6, i64 12, i1 false)
  store float %2, ptr %7, align 4
  %11 = getelementptr inbounds nuw %struct.Vector3, ptr %4, i32 0, i32 0
  %12 = getelementptr inbounds nuw %struct.Vector3, ptr %5, i32 0, i32 0
  %13 = load float, ptr %12, align 4
  %14 = load float, ptr %7, align 4
  %15 = fadd float %13, %14
  store float %15, ptr %11, align 4
  %16 = getelementptr inbounds nuw %struct.Vector3, ptr %4, i32 0, i32 1
  %17 = getelementptr inbounds nuw %struct.Vector3, ptr %5, i32 0, i32 1
  %18 = load float, ptr %17, align 4
  %19 = load float, ptr %7, align 4
  %20 = fadd float %18, %19
  store float %20, ptr %16, align 4
  %21 = getelementptr inbounds nuw %struct.Vector3, ptr %4, i32 0, i32 2
  %22 = getelementptr inbounds nuw %struct.Vector3, ptr %5, i32 0, i32 2
  %23 = load float, ptr %22, align 4
  %24 = load float, ptr %7, align 4
  %25 = fadd float %23, %24
  store float %25, ptr %21, align 4
  call void @llvm.memcpy.p0.p0.i64(ptr align 8 %8, ptr align 4 %4, i64 12, i1 false)
  %26 = load { <2 x float>, float }, ptr %8, align 8
  ret { <2 x float>, float } %26
}