; Function Attrs: mustprogress nofree norecurse nosync nounwind willreturn memory(none) uwtable
define { <2 x float>, float } @Vector3AddValue(<2 x float> %0, float %1, float noundef %2) local_unnamed_addr #17 {
  %.sroa.05.0.vec.extract = extractelement <2 x float> %0, i64 0
  %4 = fadd float %.sroa.05.0.vec.extract, %2
  %.sroa.06.0.vec.insert = insertelement <2 x float> poison, float %4, i64 0
  %.sroa.05.4.vec.extract = extractelement <2 x float> %0, i64 1
  %5 = fadd float %.sroa.05.4.vec.extract, %2
  %.sroa.06.4.vec.insert = insertelement <2 x float> %.sroa.06.0.vec.insert, float %5, i64 1
  %6 = fadd float %1, %2
  %.fca.0.insert = insertvalue { <2 x float>, float } poison, <2 x float> %.sroa.06.4.vec.insert, 0
  %.fca.1.insert = insertvalue { <2 x float>, float } %.fca.0.insert, float %6, 1
  ret { <2 x float>, float } %.fca.1.insert
}